target datalayout = "e-m:e-p270:32:32-p271:32:32-p272:64:64-i64:64-i128:128-f80:128-n8:16:32:64-S128"
target triple = "x86_64-pc-linux-gnu"

; Function Attrs: nounwind uwtable
define internal i32 @SampleFormatIsValid(i64 noundef %0) #0 {
  %2 = alloca i32, align 4
  %3 = alloca i64, align 8
  store i64 %0, ptr %3, align 8
  %4 = load i64, ptr %3, align 8
  %5 = and i64 %4, -2147483649
  switch i64 %5, label %13 [
    i64 1, label %6
    i64 8, label %7
    i64 2, label %8
    i64 4, label %9
    i64 16, label %10
    i64 32, label %11
    i64 65536, label %12
  ]

6:                                                ; preds = %1
  store i32 1, ptr %2, align 4
  br label %14

7:                                                ; preds = %1
  store i32 1, ptr %2, align 4
  br label %14

8:                                                ; preds = %1
  store i32 1, ptr %2, align 4
  br label %14

9:                                                ; preds = %1
  store i32 1, ptr %2, align 4
  br label %14

10:                                               ; preds = %1
  store i32 1, ptr %2, align 4
  br label %14

11:                                               ; preds = %1
  store i32 1, ptr %2, align 4
  br label %14

12:                                               ; preds = %1
  store i32 1, ptr %2, align 4
  br label %14

13:                                               ; preds = %1
  store i32 0, ptr %2, align 4
  br label %14

14:                                               ; preds = %13, %12, %11, %10, %9, %8, %7, %6
  %15 = load i32, ptr %2, align 4
  ret i32 %15
}