; Function Attrs: mustprogress nofree norecurse nosync nounwind willreturn memory(none) uwtable
define internal fastcc range(i32 0, 2) i32 @SampleFormatIsValid(i64 noundef %0) unnamed_addr #0 {
  %2 = and i64 %0, -2147483649
  switch i64 %2, label %3 [
    i64 1, label %4
    i64 8, label %4
    i64 2, label %4
    i64 4, label %4
    i64 16, label %4
    i64 32, label %4
    i64 65536, label %4
  ]

3:                                                ; preds = %1
  br label %4

4:                                                ; preds = %1, %1, %1, %1, %1, %1, %1, %3
  %.0 = phi i32 [ 0, %3 ], [ 1, %1 ], [ 1, %1 ], [ 1, %1 ], [ 1, %1 ], [ 1, %1 ], [ 1, %1 ], [ 1, %1 ]
  ret i32 %.0
}